target datalayout = "e-m:e-p270:32:32-p271:32:32-p272:64:64-i64:64-i128:128-f80:128-n8:16:32:64-S128"
target triple = "x86_64-pc-linux-gnu"

%struct.mi_stat_count_s = type { i64, i64, i64, i64 }

@.str.22 = private unnamed_addr constant [2 x i8] c"\0A\00", align 1
@.str.31 = private unnamed_addr constant [6 x i8] c"%10s:\00", align 1
@.str.32 = private unnamed_addr constant [18 x i8] c"  not all freed!\0A\00", align 1
@.str.33 = private unnamed_addr constant [6 x i8] c"  ok\0A\00", align 1
@.str.34 = private unnamed_addr constant [5 x i8] c"%22s\00", align 1
@.str.35 = private unnamed_addr constant [1 x i8] zeroinitializer, align 1
@.str.36 = private unnamed_addr constant [5 x i8] c"%11s\00", align 1
@.str.37 = private unnamed_addr constant [2 x i8] c" \00", align 1

; Function Attrs: nounwind uwtable
define internal void @mi_print_count(i64 noundef %0, i64 noundef %1, ptr noundef %2, ptr noundef %3) #0 {
  %5 = alloca i64, align 8
  %6 = alloca i64, align 8
  %7 = alloca ptr, align 8
  %8 = alloca ptr, align 8
  store i64 %0, ptr %5, align 8, !tbaa !8
  store i64 %1, ptr %6, align 8, !tbaa !8
  store ptr %2, ptr %7, align 8, !tbaa !13
  store ptr %3, ptr %8, align 8, !tbaa !13
  %9 = load i64, ptr %6, align 8, !tbaa !8
  %10 = icmp eq i64 %9, 1
  br i1 %10, label %11, label %14

11:                                               ; preds = %4
  %12 = load ptr, ptr %7, align 8, !tbaa !13
  %13 = load ptr, ptr %8, align 8, !tbaa !13
  call void (ptr, ptr, ptr, ...) @_mi_fprintf(ptr noundef %12, ptr noundef %13, ptr noundef @.str.36, ptr noundef @.str.37)
  br label %18

14:                                               ; preds = %4
  %15 = load i64, ptr %5, align 8, !tbaa !8
  %16 = load ptr, ptr %7, align 8, !tbaa !13
  %17 = load ptr, ptr %8, align 8, !tbaa !13
  call void @mi_print_amount(i64 noundef %15, i64 noundef 0, ptr noundef %16, ptr noundef %17)
  br label %18

18:                                               ; preds = %14, %11
  ret void
}

; Function Attrs: nounwind uwtable
define internal void @mi_print_amount(i64 noundef %0, i64 noundef %1, ptr noundef %2, ptr noundef %3) #0 {
  %5 = alloca i64, align 8
  %6 = alloca i64, align 8
  %7 = alloca ptr, align 8
  %8 = alloca ptr, align 8
  store i64 %0, ptr %5, align 8, !tbaa !8
  store i64 %1, ptr %6, align 8, !tbaa !8
  store ptr %2, ptr %7, align 8, !tbaa !13
  store ptr %3, ptr %8, align 8, !tbaa !13
  %9 = load i64, ptr %5, align 8, !tbaa !8
  %10 = load i64, ptr %6, align 8, !tbaa !8
  %11 = load ptr, ptr %7, align 8, !tbaa !13
  %12 = load ptr, ptr %8, align 8, !tbaa !13
  call void @mi_printf_amount(i64 noundef %9, i64 noundef %10, ptr noundef %11, ptr noundef %12, ptr noundef null)
  ret void
}

; Function Attrs: nounwind uwtable
define internal void @mi_stat_print(ptr noundef %0, ptr noundef %1, i64 noundef %2, ptr noundef %3, ptr noundef %4) #0 {
  %6 = alloca ptr, align 8
  %7 = alloca ptr, align 8
  %8 = alloca i64, align 8
  %9 = alloca ptr, align 8
  %10 = alloca ptr, align 8
  store ptr %0, ptr %6, align 8, !tbaa !16
  store ptr %1, ptr %7, align 8, !tbaa !49
  store i64 %2, ptr %8, align 8, !tbaa !8
  store ptr %3, ptr %9, align 8, !tbaa !13
  store ptr %4, ptr %10, align 8, !tbaa !13
  %11 = load ptr, ptr %9, align 8, !tbaa !13
  %12 = load ptr, ptr %10, align 8, !tbaa !13
  %13 = load ptr, ptr %7, align 8, !tbaa !49
  call void (ptr, ptr, ptr, ...) @_mi_fprintf(ptr noundef %11, ptr noundef %12, ptr noundef @.str.31, ptr noundef %13)
  %14 = load i64, ptr %8, align 8, !tbaa !8
  %15 = icmp sgt i64 %14, 0
  br i1 %15, label %16, label %64

16:                                               ; preds = %5
  %17 = load ptr, ptr %6, align 8, !tbaa !16
  %18 = getelementptr inbounds nuw %struct.mi_stat_count_s, ptr %17, i32 0, i32 2
  %19 = load i64, ptr %18, align 8, !tbaa !20
  %20 = load i64, ptr %8, align 8, !tbaa !8
  %21 = load ptr, ptr %9, align 8, !tbaa !13
  %22 = load ptr, ptr %10, align 8, !tbaa !13
  call void @mi_print_amount(i64 noundef %19, i64 noundef %20, ptr noundef %21, ptr noundef %22)
  %23 = load ptr, ptr %6, align 8, !tbaa !16
  %24 = getelementptr inbounds nuw %struct.mi_stat_count_s, ptr %23, i32 0, i32 0
  %25 = load i64, ptr %24, align 8, !tbaa !21
  %26 = load i64, ptr %8, align 8, !tbaa !8
  %27 = load ptr, ptr %9, align 8, !tbaa !13
  %28 = load ptr, ptr %10, align 8, !tbaa !13
  call void @mi_print_amount(i64 noundef %25, i64 noundef %26, ptr noundef %27, ptr noundef %28)
  %29 = load ptr, ptr %6, align 8, !tbaa !16
  %30 = getelementptr inbounds nuw %struct.mi_stat_count_s, ptr %29, i32 0, i32 1
  %31 = load i64, ptr %30, align 8, !tbaa !22
  %32 = load i64, ptr %8, align 8, !tbaa !8
  %33 = load ptr, ptr %9, align 8, !tbaa !13
  %34 = load ptr, ptr %10, align 8, !tbaa !13
  call void @mi_print_amount(i64 noundef %31, i64 noundef %32, ptr noundef %33, ptr noundef %34)
  %35 = load ptr, ptr %6, align 8, !tbaa !16
  %36 = getelementptr inbounds nuw %struct.mi_stat_count_s, ptr %35, i32 0, i32 3
  %37 = load i64, ptr %36, align 8, !tbaa !18
  %38 = load i64, ptr %8, align 8, !tbaa !8
  %39 = load ptr, ptr %9, align 8, !tbaa !13
  %40 = load ptr, ptr %10, align 8, !tbaa !13
  call void @mi_print_amount(i64 noundef %37, i64 noundef %38, ptr noundef %39, ptr noundef %40)
  %41 = load i64, ptr %8, align 8, !tbaa !8
  %42 = load ptr, ptr %9, align 8, !tbaa !13
  %43 = load ptr, ptr %10, align 8, !tbaa !13
  call void @mi_print_amount(i64 noundef %41, i64 noundef 1, ptr noundef %42, ptr noundef %43)
  %44 = load ptr, ptr %6, align 8, !tbaa !16
  %45 = getelementptr inbounds nuw %struct.mi_stat_count_s, ptr %44, i32 0, i32 0
  %46 = load i64, ptr %45, align 8, !tbaa !21
  %47 = load i64, ptr %8, align 8, !tbaa !8
  %48 = load ptr, ptr %9, align 8, !tbaa !13
  %49 = load ptr, ptr %10, align 8, !tbaa !13
  call void @mi_print_count(i64 noundef %46, i64 noundef %47, ptr noundef %48, ptr noundef %49)
  %50 = load ptr, ptr %6, align 8, !tbaa !16
  %51 = getelementptr inbounds nuw %struct.mi_stat_count_s, ptr %50, i32 0, i32 0
  %52 = load i64, ptr %51, align 8, !tbaa !21
  %53 = load ptr, ptr %6, align 8, !tbaa !16
  %54 = getelementptr inbounds nuw %struct.mi_stat_count_s, ptr %53, i32 0, i32 1
  %55 = load i64, ptr %54, align 8, !tbaa !22
  %56 = icmp sgt i64 %52, %55
  br i1 %56, label %57, label %60

57:                                               ; preds = %16
  %58 = load ptr, ptr %9, align 8, !tbaa !13
  %59 = load ptr, ptr %10, align 8, !tbaa !13
  call void (ptr, ptr, ptr, ...) @_mi_fprintf(ptr noundef %58, ptr noundef %59, ptr noundef @.str.32)
  br label %63

60:                                               ; preds = %16
  %61 = load ptr, ptr %9, align 8, !tbaa !13
  %62 = load ptr, ptr %10, align 8, !tbaa !13
  call void (ptr, ptr, ptr, ...) @_mi_fprintf(ptr noundef %61, ptr noundef %62, ptr noundef @.str.33)
  br label %63

63:                                               ; preds = %60, %57
  br label %142

64:                                               ; preds = %5
  %65 = load i64, ptr %8, align 8, !tbaa !8
  %66 = icmp slt i64 %65, 0
  br i1 %66, label %67, label %121

67:                                               ; preds = %64
  %68 = load ptr, ptr %6, align 8, !tbaa !16
  %69 = getelementptr inbounds nuw %struct.mi_stat_count_s, ptr %68, i32 0, i32 2
  %70 = load i64, ptr %69, align 8, !tbaa !20
  %71 = load ptr, ptr %9, align 8, !tbaa !13
  %72 = load ptr, ptr %10, align 8, !tbaa !13
  call void @mi_print_amount(i64 noundef %70, i64 noundef -1, ptr noundef %71, ptr noundef %72)
  %73 = load ptr, ptr %6, align 8, !tbaa !16
  %74 = getelementptr inbounds nuw %struct.mi_stat_count_s, ptr %73, i32 0, i32 0
  %75 = load i64, ptr %74, align 8, !tbaa !21
  %76 = load ptr, ptr %9, align 8, !tbaa !13
  %77 = load ptr, ptr %10, align 8, !tbaa !13
  call void @mi_print_amount(i64 noundef %75, i64 noundef -1, ptr noundef %76, ptr noundef %77)
  %78 = load ptr, ptr %6, align 8, !tbaa !16
  %79 = getelementptr inbounds nuw %struct.mi_stat_count_s, ptr %78, i32 0, i32 1
  %80 = load i64, ptr %79, align 8, !tbaa !22
  %81 = load ptr, ptr %9, align 8, !tbaa !13
  %82 = load ptr, ptr %10, align 8, !tbaa !13
  call void @mi_print_amount(i64 noundef %80, i64 noundef -1, ptr noundef %81, ptr noundef %82)
  %83 = load ptr, ptr %6, align 8, !tbaa !16
  %84 = getelementptr inbounds nuw %struct.mi_stat_count_s, ptr %83, i32 0, i32 3
  %85 = load i64, ptr %84, align 8, !tbaa !18
  %86 = load ptr, ptr %9, align 8, !tbaa !13
  %87 = load ptr, ptr %10, align 8, !tbaa !13
  call void @mi_print_amount(i64 noundef %85, i64 noundef -1, ptr noundef %86, ptr noundef %87)
  %88 = load i64, ptr %8, align 8, !tbaa !8
  %89 = icmp eq i64 %88, -1
  br i1 %89, label %90, label %93

90:                                               ; preds = %67
  %91 = load ptr, ptr %9, align 8, !tbaa !13
  %92 = load ptr, ptr %10, align 8, !tbaa !13
  call void (ptr, ptr, ptr, ...) @_mi_fprintf(ptr noundef %91, ptr noundef %92, ptr noundef @.str.34, ptr noundef @.str.35)
  br label %106

93:                                               ; preds = %67
  %94 = load i64, ptr %8, align 8, !tbaa !8
  %95 = sub nsw i64 0, %94
  %96 = load ptr, ptr %9, align 8, !tbaa !13
  %97 = load ptr, ptr %10, align 8, !tbaa !13
  call void @mi_print_amount(i64 noundef %95, i64 noundef 1, ptr noundef %96, ptr noundef %97)
  %98 = load ptr, ptr %6, align 8, !tbaa !16
  %99 = getelementptr inbounds nuw %struct.mi_stat_count_s, ptr %98, i32 0, i32 0
  %100 = load i64, ptr %99, align 8, !tbaa !21
  %101 = load i64, ptr %8, align 8, !tbaa !8
  %102 = sub nsw i64 0, %101
  %103 = sdiv i64 %100, %102
  %104 = load ptr, ptr %9, align 8, !tbaa !13
  %105 = load ptr, ptr %10, align 8, !tbaa !13
  call void @mi_print_count(i64 noundef %103, i64 noundef 0, ptr noundef %104, ptr noundef %105)
  br label %106

106:                                              ; preds = %93, %90
  %107 = load ptr, ptr %6, align 8, !tbaa !16
  %108 = getelementptr inbounds nuw %struct.mi_stat_count_s, ptr %107, i32 0, i32 0
  %109 = load i64, ptr %108, align 8, !tbaa !21
  %110 = load ptr, ptr %6, align 8, !tbaa !16
  %111 = getelementptr inbounds nuw %struct.mi_stat_count_s, ptr %110, i32 0, i32 1
  %112 = load i64, ptr %111, align 8, !tbaa !22
  %113 = icmp sgt i64 %109, %112
  br i1 %113, label %114, label %117

114:                                              ; preds = %106
  %115 = load ptr, ptr %9, align 8, !tbaa !13
  %116 = load ptr, ptr %10, align 8, !tbaa !13
  call void (ptr, ptr, ptr, ...) @_mi_fprintf(ptr noundef %115, ptr noundef %116, ptr noundef @.str.32)
  br label %120

117:                                              ; preds = %106
  %118 = load ptr, ptr %9, align 8, !tbaa !13
  %119 = load ptr, ptr %10, align 8, !tbaa !13
  call void (ptr, ptr, ptr, ...) @_mi_fprintf(ptr noundef %118, ptr noundef %119, ptr noundef @.str.33)
  br label %120

120:                                              ; preds = %117, %114
  br label %141

121:                                              ; preds = %64
  %122 = load ptr, ptr %6, align 8, !tbaa !16
  %123 = getelementptr inbounds nuw %struct.mi_stat_count_s, ptr %122, i32 0, i32 2
  %124 = load i64, ptr %123, align 8, !tbaa !20
  %125 = load ptr, ptr %9, align 8, !tbaa !13
  %126 = load ptr, ptr %10, align 8, !tbaa !13
  call void @mi_print_amount(i64 noundef %124, i64 noundef 1, ptr noundef %125, ptr noundef %126)
  %127 = load ptr, ptr %6, align 8, !tbaa !16
  %128 = getelementptr inbounds nuw %struct.mi_stat_count_s, ptr %127, i32 0, i32 0
  %129 = load i64, ptr %128, align 8, !tbaa !21
  %130 = load ptr, ptr %9, align 8, !tbaa !13
  %131 = load ptr, ptr %10, align 8, !tbaa !13
  call void @mi_print_amount(i64 noundef %129, i64 noundef 1, ptr noundef %130, ptr noundef %131)
  %132 = load ptr, ptr %9, align 8, !tbaa !13
  %133 = load ptr, ptr %10, align 8, !tbaa !13
  call void (ptr, ptr, ptr, ...) @_mi_fprintf(ptr noundef %132, ptr noundef %133, ptr noundef @.str.36, ptr noundef @.str.37)
  %134 = load ptr, ptr %6, align 8, !tbaa !16
  %135 = getelementptr inbounds nuw %struct.mi_stat_count_s, ptr %134, i32 0, i32 3
  %136 = load i64, ptr %135, align 8, !tbaa !18
  %137 = load ptr, ptr %9, align 8, !tbaa !13
  %138 = load ptr, ptr %10, align 8, !tbaa !13
  call void @mi_print_amount(i64 noundef %136, i64 noundef 1, ptr noundef %137, ptr noundef %138)
  %139 = load ptr, ptr %9, align 8, !tbaa !13
  %140 = load ptr, ptr %10, align 8, !tbaa !13
  call void (ptr, ptr, ptr, ...) @_mi_fprintf(ptr noundef %139, ptr noundef %140, ptr noundef @.str.22)
  br label %141

141:                                              ; preds = %121, %120
  br label %142

142:                                              ; preds = %141, %63
  ret void
}