; Function Attrs: nounwind uwtable
define internal fastcc void @mi_stat_print(ptr noundef readonly captures(none) %0, ptr noundef %1, i64 noundef range(i64 -1, 2) %2, ptr noundef nonnull %3) unnamed_addr #2 {
  %5 = alloca [32 x i8], align 16
  tail call void (ptr, ptr, ptr, ...) @_mi_fprintf(ptr noundef nonnull @mi_buffered_out, ptr noundef nonnull %3, ptr noundef nonnull @.str.31, ptr noundef %1) #10
  %6 = icmp sgt i64 %2, 0
  br i1 %6, label %7, label %20

7:                                                ; preds = %4
  %8 = getelementptr inbounds nuw i8, ptr %0, i64 16
  %9 = load i64, ptr %8, align 8, !tbaa !13
  tail call fastcc void @mi_printf_amount(i64 noundef %9, i64 noundef 1, ptr noundef nonnull %3, ptr noundef null)
  %10 = load i64, ptr %0, align 8, !tbaa !14
  tail call fastcc void @mi_printf_amount(i64 noundef %10, i64 noundef 1, ptr noundef nonnull %3, ptr noundef null)
  %11 = getelementptr inbounds nuw i8, ptr %0, i64 8
  %12 = load i64, ptr %11, align 8, !tbaa !15
  tail call fastcc void @mi_printf_amount(i64 noundef %12, i64 noundef 1, ptr noundef nonnull %3, ptr noundef null)
  %13 = getelementptr inbounds nuw i8, ptr %0, i64 24
  %14 = load i64, ptr %13, align 8, !tbaa !11
  tail call fastcc void @mi_printf_amount(i64 noundef %14, i64 noundef 1, ptr noundef nonnull %3, ptr noundef null)
  call void @llvm.lifetime.start.p0(i64 32, ptr nonnull %5) #10
  store i8 0, ptr %5, align 16, !tbaa !38
  call void (ptr, ptr, ptr, ...) @_mi_fprintf(ptr noundef nonnull @mi_buffered_out, ptr noundef nonnull %3, ptr noundef nonnull @.str.36, ptr noundef nonnull %5) #10
  call void @llvm.lifetime.end.p0(i64 32, ptr nonnull %5) #10
  call void (ptr, ptr, ptr, ...) @_mi_fprintf(ptr noundef nonnull @mi_buffered_out, ptr noundef nonnull %3, ptr noundef nonnull @.str.36, ptr noundef nonnull @.str.37) #10
  %15 = load i64, ptr %0, align 8, !tbaa !14
  %16 = load i64, ptr %11, align 8, !tbaa !15
  %17 = icmp sgt i64 %15, %16
  br i1 %17, label %18, label %19

18:                                               ; preds = %7
  call void (ptr, ptr, ptr, ...) @_mi_fprintf(ptr noundef nonnull @mi_buffered_out, ptr noundef nonnull %3, ptr noundef nonnull @.str.32) #10
  br label %39

19:                                               ; preds = %7
  call void (ptr, ptr, ptr, ...) @_mi_fprintf(ptr noundef nonnull @mi_buffered_out, ptr noundef nonnull %3, ptr noundef nonnull @.str.33) #10
  br label %39

20:                                               ; preds = %4
  %21 = icmp slt i64 %2, 0
  %22 = getelementptr inbounds nuw i8, ptr %0, i64 16
  %23 = load i64, ptr %22, align 8, !tbaa !13
  br i1 %21, label %24, label %35

24:                                               ; preds = %20
  tail call fastcc void @mi_printf_amount(i64 noundef %23, i64 noundef -1, ptr noundef nonnull %3, ptr noundef null)
  %25 = load i64, ptr %0, align 8, !tbaa !14
  tail call fastcc void @mi_printf_amount(i64 noundef %25, i64 noundef -1, ptr noundef nonnull %3, ptr noundef null)
  %26 = getelementptr inbounds nuw i8, ptr %0, i64 8
  %27 = load i64, ptr %26, align 8, !tbaa !15
  tail call fastcc void @mi_printf_amount(i64 noundef %27, i64 noundef -1, ptr noundef nonnull %3, ptr noundef null)
  %28 = getelementptr inbounds nuw i8, ptr %0, i64 24
  %29 = load i64, ptr %28, align 8, !tbaa !11
  tail call fastcc void @mi_printf_amount(i64 noundef %29, i64 noundef -1, ptr noundef nonnull %3, ptr noundef null)
  tail call void (ptr, ptr, ptr, ...) @_mi_fprintf(ptr noundef nonnull @mi_buffered_out, ptr noundef nonnull %3, ptr noundef nonnull @.str.34, ptr noundef nonnull @.str.35) #10
  %30 = load i64, ptr %0, align 8, !tbaa !14
  %31 = load i64, ptr %26, align 8, !tbaa !15
  %32 = icmp sgt i64 %30, %31
  br i1 %32, label %33, label %34

33:                                               ; preds = %24
  tail call void (ptr, ptr, ptr, ...) @_mi_fprintf(ptr noundef nonnull @mi_buffered_out, ptr noundef nonnull %3, ptr noundef nonnull @.str.32) #10
  br label %39

34:                                               ; preds = %24
  tail call void (ptr, ptr, ptr, ...) @_mi_fprintf(ptr noundef nonnull @mi_buffered_out, ptr noundef nonnull %3, ptr noundef nonnull @.str.33) #10
  br label %39

35:                                               ; preds = %20
  tail call fastcc void @mi_printf_amount(i64 noundef %23, i64 noundef 1, ptr noundef nonnull %3, ptr noundef null)
  %36 = load i64, ptr %0, align 8, !tbaa !14
  tail call fastcc void @mi_printf_amount(i64 noundef %36, i64 noundef 1, ptr noundef nonnull %3, ptr noundef null)
  tail call void (ptr, ptr, ptr, ...) @_mi_fprintf(ptr noundef nonnull @mi_buffered_out, ptr noundef nonnull %3, ptr noundef nonnull @.str.36, ptr noundef nonnull @.str.37) #10
  %37 = getelementptr inbounds nuw i8, ptr %0, i64 24
  %38 = load i64, ptr %37, align 8, !tbaa !11
  tail call fastcc void @mi_printf_amount(i64 noundef %38, i64 noundef 1, ptr noundef nonnull %3, ptr noundef null)
  tail call void (ptr, ptr, ptr, ...) @_mi_fprintf(ptr noundef nonnull @mi_buffered_out, ptr noundef nonnull %3, ptr noundef nonnull @.str.22) #10
  br label %39

39:                                               ; preds = %35, %34, %33, %18, %19
  ret void
}